; Function Attrs: mustprogress nofree norecurse nosync nounwind willreturn memory(read, argmem: readwrite, inaccessiblemem: none) uwtable
define range(i32 -46, 1) i32 @pmix_mca_base_var_get(i32 noundef %0, ptr noundef writeonly captures(address_is_null) %1) local_unnamed_addr #14 {
  %.not.i = icmp eq ptr %1, null
  br i1 %.not.i, label %4, label %3

3:                                                ; preds = %2
  store ptr null, ptr %1, align 8, !tbaa !74
  br label %4

4:                                                ; preds = %3, %2
  %5 = load i8, ptr @pmix_mca_base_var_initialized, align 1, !tbaa !54, !range !36, !noundef !37
  %6 = trunc nuw i8 %5 to i1
  br i1 %6, label %7, label %var_get.exit.thread

7:                                                ; preds = %4
  %8 = icmp slt i32 %0, 0
  %9 = load i32, ptr getelementptr inbounds nuw (i8, ptr @pmix_mca_base_vars, i64 128), align 8
  %10 = icmp sle i32 %9, %0
  %or.cond.i = select i1 %8, i1 true, i1 %10
  br i1 %or.cond.i, label %var_get.exit.thread, label %pmix_pointer_array_get_item.exit.i, !prof !63

pmix_pointer_array_get_item.exit.i:               ; preds = %7
  %11 = load ptr, ptr getelementptr inbounds nuw (i8, ptr @pmix_mca_base_vars, i64 152), align 8, !tbaa !58
  %12 = zext nneg i32 %0 to i64
  %13 = getelementptr inbounds nuw ptr, ptr %11, i64 %12
  %14 = load ptr, ptr %13, align 8, !tbaa !22
  %15 = icmp eq ptr %14, null
  br i1 %15, label %var_get.exit.thread, label %16

16:                                               ; preds = %pmix_pointer_array_get_item.exit.i
  br i1 %.not.i, label %var_get.exit, label %var_get.exit.sink.split.i

var_get.exit.sink.split.i:                        ; preds = %16
  store ptr %14, ptr %1, align 8, !tbaa !74
  br label %var_get.exit

var_get.exit:                                     ; preds = %16, %var_get.exit.sink.split.i
  %17 = getelementptr inbounds nuw i8, ptr %14, i64 320
  %18 = load i32, ptr %17, align 8, !tbaa !61
  %19 = and i32 %18, 65536
  %.not6 = icmp eq i32 %19, 0
  %. = select i1 %.not6, i32 -46, i32 0
  br label %var_get.exit.thread

var_get.exit.thread:                              ; preds = %pmix_pointer_array_get_item.exit.i, %7, %4, %var_get.exit
  %.0 = phi i32 [ %., %var_get.exit ], [ -27, %pmix_pointer_array_get_item.exit.i ], [ -27, %7 ], [ -1, %4 ]
  ret i32 %.0
}